target datalayout = "e-m:e-p270:32:32-p271:32:32-p272:64:64-i64:64-i128:128-f80:128-n8:16:32:64-S128"
target triple = "x86_64-pc-linux-gnu"

%struct.SwsInternal = type { %struct.SwsContext, ptr, ptr, ptr, ptr, i32, [2 x ptr], i32, i32, ptr, i32, i32, i32, i32, i32, i32, i32, i32, i32, i32, i32, i32, i32, i32, i32, i32, i32, i32, ptr, ptr, %struct.RangeList, [3 x ptr], [2 x [4 x i32]], [2 x [4 x ptr]], i32, double, i32, ptr, ptr, i32, [2 x i32], i32, ptr, ptr, [256 x i32], [256 x i32], [256 x float], i32, i32, ptr, i32, ptr, ptr, ptr, ptr, ptr, ptr, ptr, ptr, i32, i32, i32, i32, i32, i32, ptr, ptr, i32, i32, i32, ptr, [8 x i8], [1280 x i32], [1280 x ptr], [1280 x ptr], [1280 x ptr], [176 x i32], [4 x ptr], i32, i32, i32, [4 x i32], [4 x i32], i32, i32, i32, i32, i32, i32, i32, i32, i32, i32, i64, i64, i64, i64, i64, i64, i64, i64, i64, i64, i64, [1024 x i32], [1024 x i32], i32, i64, i64, i64, i64, i64, [1024 x i32], i64, i64, [8 x i16], [8 x i32], ptr, ptr, i32, ptr, ptr, ptr, ptr, [3 x [4 x i16]], [3 x [4 x i16]], ptr, ptr, ptr, ptr, ptr, ptr, ptr, ptr, ptr, ptr, ptr, ptr, ptr, ptr, ptr, ptr, ptr, ptr, ptr, ptr, i32, i32, i64, i64, i32, ptr, i32, ptr, i32, i32, i32, i32, i32, ptr }
%struct.SwsContext = type { ptr, ptr, i32, [2 x double], i32, i32, i32, i32, i32, i32, i32, i32, i32, i32, i32, i32, i32, i32, i32, i32, i32 }
%struct.RangeList = type { ptr, i32, i32 }

; Function Attrs: inlinehint nounwind uwtable
define internal ptr @sws_internal(ptr noundef %0) #5 {
  %2 = alloca ptr, align 8
  store ptr %0, ptr %2, align 8, !tbaa !90
  %3 = load ptr, ptr %2, align 8, !tbaa !90
  ret ptr %3
}

; Function Attrs: nounwind uwtable
define internal i32 @scale_gamma(ptr noundef %0, ptr noundef %1, ptr noundef %2, i32 noundef %3, i32 noundef %4, ptr noundef %5, ptr noundef %6, i32 noundef %7, i32 noundef %8) #0 {
  %10 = alloca i32, align 4
  %11 = alloca ptr, align 8
  %12 = alloca ptr, align 8
  %13 = alloca ptr, align 8
  %14 = alloca i32, align 4
  %15 = alloca i32, align 4
  %16 = alloca ptr, align 8
  %17 = alloca ptr, align 8
  %18 = alloca i32, align 4
  %19 = alloca i32, align 4
  %20 = alloca i32, align 4
  %21 = alloca i32, align 4
  %22 = alloca i32, align 4
  store ptr %0, ptr %11, align 8, !tbaa !4
  store ptr %1, ptr %12, align 8, !tbaa !9
  store ptr %2, ptr %13, align 8, !tbaa !12
  store i32 %3, ptr %14, align 4, !tbaa !14
  store i32 %4, ptr %15, align 4, !tbaa !14
  store ptr %5, ptr %16, align 8, !tbaa !9
  store ptr %6, ptr %17, align 8, !tbaa !12
  store i32 %7, ptr %18, align 4, !tbaa !14
  store i32 %8, ptr %19, align 4, !tbaa !14
  call void @llvm.lifetime.start.p0(i64 4, ptr %20) #11
  %23 = load ptr, ptr %11, align 8, !tbaa !4
  %24 = getelementptr inbounds nuw %struct.SwsInternal, ptr %23, i32 0, i32 31
  %25 = getelementptr inbounds [3 x ptr], ptr %24, i64 0, i64 0
  %26 = load ptr, ptr %25, align 16, !tbaa !90
  %27 = load ptr, ptr %12, align 8, !tbaa !9
  %28 = load ptr, ptr %13, align 8, !tbaa !12
  %29 = load i32, ptr %14, align 4, !tbaa !14
  %30 = load i32, ptr %15, align 4, !tbaa !14
  %31 = load ptr, ptr %11, align 8, !tbaa !4
  %32 = getelementptr inbounds nuw %struct.SwsInternal, ptr %31, i32 0, i32 33
  %33 = getelementptr inbounds [2 x [4 x ptr]], ptr %32, i64 0, i64 0
  %34 = getelementptr inbounds [4 x ptr], ptr %33, i64 0, i64 0
  %35 = load ptr, ptr %11, align 8, !tbaa !4
  %36 = getelementptr inbounds nuw %struct.SwsInternal, ptr %35, i32 0, i32 32
  %37 = getelementptr inbounds [2 x [4 x i32]], ptr %36, i64 0, i64 0
  %38 = getelementptr inbounds [4 x i32], ptr %37, i64 0, i64 0
  %39 = load ptr, ptr %11, align 8, !tbaa !4
  %40 = getelementptr inbounds nuw %struct.SwsInternal, ptr %39, i32 0, i32 0
  %41 = getelementptr inbounds nuw %struct.SwsContext, ptr %40, i32 0, i32 9
  %42 = load i32, ptr %41, align 4, !tbaa !73
  %43 = call i32 @scale_internal(ptr noundef %26, ptr noundef %27, ptr noundef %28, i32 noundef %29, i32 noundef %30, ptr noundef %34, ptr noundef %38, i32 noundef 0, i32 noundef %42)
  store i32 %43, ptr %20, align 4, !tbaa !14
  %44 = load i32, ptr %20, align 4, !tbaa !14
  %45 = icmp slt i32 %44, 0
  br i1 %45, label %46, label %48

46:                                               ; preds = %9
  %47 = load i32, ptr %20, align 4, !tbaa !14
  store i32 %47, ptr %10, align 4
  store i32 1, ptr %21, align 4
  br label %144

48:                                               ; preds = %9
  %49 = load ptr, ptr %11, align 8, !tbaa !4
  %50 = getelementptr inbounds nuw %struct.SwsInternal, ptr %49, i32 0, i32 31
  %51 = getelementptr inbounds [3 x ptr], ptr %50, i64 0, i64 2
  %52 = load ptr, ptr %51, align 16, !tbaa !90
  %53 = icmp ne ptr %52, null
  br i1 %53, label %54, label %82

54:                                               ; preds = %48
  %55 = load ptr, ptr %11, align 8, !tbaa !4
  %56 = getelementptr inbounds nuw %struct.SwsInternal, ptr %55, i32 0, i32 31
  %57 = getelementptr inbounds [3 x ptr], ptr %56, i64 0, i64 1
  %58 = load ptr, ptr %57, align 8, !tbaa !90
  %59 = load ptr, ptr %11, align 8, !tbaa !4
  %60 = getelementptr inbounds nuw %struct.SwsInternal, ptr %59, i32 0, i32 33
  %61 = getelementptr inbounds [2 x [4 x ptr]], ptr %60, i64 0, i64 0
  %62 = getelementptr inbounds [4 x ptr], ptr %61, i64 0, i64 0
  %63 = load ptr, ptr %11, align 8, !tbaa !4
  %64 = getelementptr inbounds nuw %struct.SwsInternal, ptr %63, i32 0, i32 32
  %65 = getelementptr inbounds [2 x [4 x i32]], ptr %64, i64 0, i64 0
  %66 = getelementptr inbounds [4 x i32], ptr %65, i64 0, i64 0
  %67 = load i32, ptr %14, align 4, !tbaa !14
  %68 = load i32, ptr %15, align 4, !tbaa !14
  %69 = load ptr, ptr %11, align 8, !tbaa !4
  %70 = getelementptr inbounds nuw %struct.SwsInternal, ptr %69, i32 0, i32 33
  %71 = getelementptr inbounds [2 x [4 x ptr]], ptr %70, i64 0, i64 1
  %72 = getelementptr inbounds [4 x ptr], ptr %71, i64 0, i64 0
  %73 = load ptr, ptr %11, align 8, !tbaa !4
  %74 = getelementptr inbounds nuw %struct.SwsInternal, ptr %73, i32 0, i32 32
  %75 = getelementptr inbounds [2 x [4 x i32]], ptr %74, i64 0, i64 1
  %76 = getelementptr inbounds [4 x i32], ptr %75, i64 0, i64 0
  %77 = load ptr, ptr %11, align 8, !tbaa !4
  %78 = getelementptr inbounds nuw %struct.SwsInternal, ptr %77, i32 0, i32 0
  %79 = getelementptr inbounds nuw %struct.SwsContext, ptr %78, i32 0, i32 11
  %80 = load i32, ptr %79, align 4, !tbaa !16
  %81 = call i32 @scale_internal(ptr noundef %58, ptr noundef %62, ptr noundef %66, i32 noundef %67, i32 noundef %68, ptr noundef %72, ptr noundef %76, i32 noundef 0, i32 noundef %80)
  store i32 %81, ptr %20, align 4, !tbaa !14
  br label %102

82:                                               ; preds = %48
  %83 = load ptr, ptr %11, align 8, !tbaa !4
  %84 = getelementptr inbounds nuw %struct.SwsInternal, ptr %83, i32 0, i32 31
  %85 = getelementptr inbounds [3 x ptr], ptr %84, i64 0, i64 1
  %86 = load ptr, ptr %85, align 8, !tbaa !90
  %87 = load ptr, ptr %11, align 8, !tbaa !4
  %88 = getelementptr inbounds nuw %struct.SwsInternal, ptr %87, i32 0, i32 33
  %89 = getelementptr inbounds [2 x [4 x ptr]], ptr %88, i64 0, i64 0
  %90 = getelementptr inbounds [4 x ptr], ptr %89, i64 0, i64 0
  %91 = load ptr, ptr %11, align 8, !tbaa !4
  %92 = getelementptr inbounds nuw %struct.SwsInternal, ptr %91, i32 0, i32 32
  %93 = getelementptr inbounds [2 x [4 x i32]], ptr %92, i64 0, i64 0
  %94 = getelementptr inbounds [4 x i32], ptr %93, i64 0, i64 0
  %95 = load i32, ptr %14, align 4, !tbaa !14
  %96 = load i32, ptr %15, align 4, !tbaa !14
  %97 = load ptr, ptr %16, align 8, !tbaa !9
  %98 = load ptr, ptr %17, align 8, !tbaa !12
  %99 = load i32, ptr %18, align 4, !tbaa !14
  %100 = load i32, ptr %19, align 4, !tbaa !14
  %101 = call i32 @scale_internal(ptr noundef %86, ptr noundef %90, ptr noundef %94, i32 noundef %95, i32 noundef %96, ptr noundef %97, ptr noundef %98, i32 noundef %99, i32 noundef %100)
  store i32 %101, ptr %20, align 4, !tbaa !14
  br label %102

102:                                              ; preds = %82, %54
  %103 = load i32, ptr %20, align 4, !tbaa !14
  %104 = icmp slt i32 %103, 0
  br i1 %104, label %105, label %107

105:                                              ; preds = %102
  %106 = load i32, ptr %20, align 4, !tbaa !14
  store i32 %106, ptr %10, align 4
  store i32 1, ptr %21, align 4
  br label %144

107:                                              ; preds = %102
  %108 = load ptr, ptr %11, align 8, !tbaa !4
  %109 = getelementptr inbounds nuw %struct.SwsInternal, ptr %108, i32 0, i32 31
  %110 = getelementptr inbounds [3 x ptr], ptr %109, i64 0, i64 2
  %111 = load ptr, ptr %110, align 16, !tbaa !90
  %112 = icmp ne ptr %111, null
  br i1 %112, label %113, label %142

113:                                              ; preds = %107
  call void @llvm.lifetime.start.p0(i64 4, ptr %22) #11
  %114 = load ptr, ptr %11, align 8, !tbaa !4
  %115 = getelementptr inbounds nuw %struct.SwsInternal, ptr %114, i32 0, i32 31
  %116 = getelementptr inbounds [3 x ptr], ptr %115, i64 0, i64 1
  %117 = load ptr, ptr %116, align 8, !tbaa !90
  %118 = call ptr @sws_internal(ptr noundef %117)
  %119 = getelementptr inbounds nuw %struct.SwsInternal, ptr %118, i32 0, i32 69
  %120 = load i32, ptr %119, align 8, !tbaa !50
  store i32 %120, ptr %22, align 4, !tbaa !14
  %121 = load ptr, ptr %11, align 8, !tbaa !4
  %122 = getelementptr inbounds nuw %struct.SwsInternal, ptr %121, i32 0, i32 31
  %123 = getelementptr inbounds [3 x ptr], ptr %122, i64 0, i64 2
  %124 = load ptr, ptr %123, align 16, !tbaa !90
  %125 = load ptr, ptr %11, align 8, !tbaa !4
  %126 = getelementptr inbounds nuw %struct.SwsInternal, ptr %125, i32 0, i32 33
  %127 = getelementptr inbounds [2 x [4 x ptr]], ptr %126, i64 0, i64 1
  %128 = getelementptr inbounds [4 x ptr], ptr %127, i64 0, i64 0
  %129 = load ptr, ptr %11, align 8, !tbaa !4
  %130 = getelementptr inbounds nuw %struct.SwsInternal, ptr %129, i32 0, i32 32
  %131 = getelementptr inbounds [2 x [4 x i32]], ptr %130, i64 0, i64 1
  %132 = getelementptr inbounds [4 x i32], ptr %131, i64 0, i64 0
  %133 = load i32, ptr %22, align 4, !tbaa !14
  %134 = load i32, ptr %20, align 4, !tbaa !14
  %135 = sub nsw i32 %133, %134
  %136 = load i32, ptr %22, align 4, !tbaa !14
  %137 = load ptr, ptr %16, align 8, !tbaa !9
  %138 = load ptr, ptr %17, align 8, !tbaa !12
  %139 = load i32, ptr %18, align 4, !tbaa !14
  %140 = load i32, ptr %19, align 4, !tbaa !14
  %141 = call i32 @scale_internal(ptr noundef %124, ptr noundef %128, ptr noundef %132, i32 noundef %135, i32 noundef %136, ptr noundef %137, ptr noundef %138, i32 noundef %139, i32 noundef %140)
  store i32 %141, ptr %20, align 4, !tbaa !14
  call void @llvm.lifetime.end.p0(i64 4, ptr %22) #11
  br label %142

142:                                              ; preds = %113, %107
  %143 = load i32, ptr %20, align 4, !tbaa !14
  store i32 %143, ptr %10, align 4
  store i32 1, ptr %21, align 4
  br label %144

144:                                              ; preds = %142, %105, %46
  call void @llvm.lifetime.end.p0(i64 4, ptr %20) #11
  %145 = load i32, ptr %10, align 4
  ret i32 %145
}