; Function Attrs: nounwind uwtable
define internal fastcc i32 @scale_gamma(ptr noundef %0, ptr noundef nonnull readonly captures(address_is_null) %1, ptr noundef nonnull readonly captures(address_is_null) %2, i32 noundef %3, i32 noundef range(i32 1, 0) %4, ptr noundef nonnull readonly captures(address_is_null) %5, ptr noundef nonnull readonly captures(address_is_null) %6, i32 noundef %7, i32 noundef %8) unnamed_addr #0 {
  %10 = getelementptr inbounds nuw i8, ptr %0, i64 288
  %11 = load ptr, ptr %10, align 16, !tbaa !137
  %12 = getelementptr inbounds nuw i8, ptr %0, i64 344
  %13 = getelementptr inbounds nuw i8, ptr %0, i64 312
  %14 = getelementptr inbounds nuw i8, ptr %0, i64 60
  %15 = load i32, ptr %14, align 4, !tbaa !72
  %16 = tail call fastcc i32 @scale_internal(ptr noundef %11, ptr noundef nonnull %1, ptr noundef nonnull %2, i32 noundef %3, i32 noundef %4, ptr noundef nonnull %12, ptr noundef nonnull %13, i32 noundef 0, i32 noundef %15)
  %17 = icmp slt i32 %16, 0
  br i1 %17, label %44, label %18

18:                                               ; preds = %9
  %19 = getelementptr inbounds nuw i8, ptr %0, i64 304
  %20 = load ptr, ptr %19, align 16, !tbaa !137
  %.not = icmp eq ptr %20, null
  %21 = getelementptr inbounds nuw i8, ptr %0, i64 296
  %22 = load ptr, ptr %21, align 8, !tbaa !137
  br i1 %.not, label %29, label %23

23:                                               ; preds = %18
  %24 = getelementptr inbounds nuw i8, ptr %0, i64 376
  %25 = getelementptr inbounds nuw i8, ptr %0, i64 328
  %26 = getelementptr inbounds nuw i8, ptr %0, i64 68
  %27 = load i32, ptr %26, align 4, !tbaa !4
  %28 = tail call fastcc i32 @scale_internal(ptr noundef %22, ptr noundef nonnull %12, ptr noundef nonnull %13, i32 noundef %3, i32 noundef %4, ptr noundef nonnull %24, ptr noundef nonnull %25, i32 noundef 0, i32 noundef %27)
  br label %31

29:                                               ; preds = %18
  %30 = tail call fastcc i32 @scale_internal(ptr noundef %22, ptr noundef nonnull %12, ptr noundef nonnull %13, i32 noundef %3, i32 noundef %4, ptr noundef nonnull %5, ptr noundef nonnull %6, i32 noundef %7, i32 noundef %8)
  br label %31

31:                                               ; preds = %29, %23
  %.043 = phi i32 [ %28, %23 ], [ %30, %29 ]
  %32 = icmp slt i32 %.043, 0
  br i1 %32, label %44, label %33

33:                                               ; preds = %31
  %34 = load ptr, ptr %19, align 16, !tbaa !137
  %.not45 = icmp eq ptr %34, null
  br i1 %.not45, label %44, label %35

35:                                               ; preds = %33
  %36 = getelementptr inbounds nuw i8, ptr %0, i64 296
  %37 = load ptr, ptr %36, align 8, !tbaa !137
  %38 = getelementptr inbounds nuw i8, ptr %37, i64 3688
  %39 = load i32, ptr %38, align 8, !tbaa !46
  %40 = getelementptr inbounds nuw i8, ptr %0, i64 376
  %41 = getelementptr inbounds nuw i8, ptr %0, i64 328
  %42 = sub nsw i32 %39, %.043
  %43 = tail call fastcc i32 @scale_internal(ptr noundef nonnull %34, ptr noundef nonnull %40, ptr noundef nonnull %41, i32 noundef %42, i32 noundef %39, ptr noundef nonnull %5, ptr noundef nonnull %6, i32 noundef %7, i32 noundef %8)
  br label %44

44:                                               ; preds = %33, %35, %31, %9
  %.0 = phi i32 [ %16, %9 ], [ %.043, %31 ], [ %43, %35 ], [ %.043, %33 ]
  ret i32 %.0
}